target datalayout = "e-m:e-p270:32:32-p271:32:32-p272:64:64-i64:64-i128:128-f80:128-n8:16:32:64-S128"
target triple = "x86_64-pc-linux-gnu"

%"struct.clang::interp::Descriptor" = type { %"class.llvm::PointerUnion", i32, i32, i32, i32, ptr, ptr, %"class.std::optional.2", i8, i8, i8, i8, i8, ptr, ptr, ptr }
%"class.llvm::PointerUnion" = type { %"class.llvm::pointer_union_detail::PointerUnionMembers" }
%"class.llvm::pointer_union_detail::PointerUnionMembers" = type { %"class.llvm::pointer_union_detail::PointerUnionMembers.0" }
%"class.llvm::pointer_union_detail::PointerUnionMembers.0" = type { %"class.llvm::pointer_union_detail::PointerUnionMembers.1" }
%"class.llvm::pointer_union_detail::PointerUnionMembers.1" = type { %"class.llvm::PointerIntPair" }
%"class.llvm::PointerIntPair" = type { %"struct.llvm::detail::PunnedPointer" }
%"struct.llvm::detail::PunnedPointer" = type { [8 x i8] }
%"class.std::optional.2" = type { %"struct.std::_Optional_base.3" }
%"struct.std::_Optional_base.3" = type { %"struct.std::_Optional_payload.5" }
%"struct.std::_Optional_payload.5" = type { %"struct.std::_Optional_payload_base.base.7", [3 x i8] }
%"struct.std::_Optional_payload_base.base.7" = type <{ %"union.std::_Optional_payload_base<clang::interp::PrimType>::_Storage", i8 }>
%"union.std::_Optional_payload_base<clang::interp::PrimType>::_Storage" = type { i32 }
%"class.clang::interp::Integral.60" = type { i32 }
%"struct.std::_Optional_base.47" = type { %"struct.std::_Optional_payload.49" }
%"struct.std::_Optional_payload.49" = type { %"struct.std::_Optional_payload.base.53", [7 x i8] }
%"struct.std::_Optional_payload.base.53" = type { %"struct.std::_Optional_payload_base.base.52" }
%"struct.std::_Optional_payload_base.base.52" = type <{ %"union.std::_Optional_payload_base<std::pair<bool, std::shared_ptr<clang::interp::InitMap>>>::_Storage", i8 }>
%"union.std::_Optional_payload_base<std::pair<bool, std::shared_ptr<clang::interp::InitMap>>>::_Storage" = type { %"struct.std::pair" }
%"struct.std::pair" = type { i8, %"class.std::shared_ptr" }
%"class.std::shared_ptr" = type { %"class.std::__shared_ptr" }
%"class.std::__shared_ptr" = type { ptr, %"class.std::__shared_count" }
%"class.std::__shared_count" = type { ptr }
%"struct.std::_Optional_payload_base.51" = type <{ %"union.std::_Optional_payload_base<std::pair<bool, std::shared_ptr<clang::interp::InitMap>>>::_Storage", i8, [7 x i8] }>

; Function Attrs: mustprogress nounwind uwtable
define linkonce_odr hidden void @_ZNSt22_Optional_payload_baseISt4pairIbSt10shared_ptrIN5clang6interp7InitMapEEEE8_StorageIS6_Lb0EEC2Ev(ptr noundef nonnull align 8 dereferenceable(24) %0) unnamed_addr #0 comdat align 2 {
  %2 = alloca ptr, align 8
  store ptr %0, ptr %2, align 8
  ret void
}

; Function Attrs: mustprogress nounwind uwtable
define linkonce_odr hidden void @_ZNSt22_Optional_payload_baseISt4pairIbSt10shared_ptrIN5clang6interp7InitMapEEEEC2Ev(ptr noundef nonnull align 8 dereferenceable(25) %0) unnamed_addr #0 comdat align 2 {
  %2 = alloca ptr, align 8
  store ptr %0, ptr %2, align 8
  %3 = load ptr, ptr %2, align 8
  %4 = getelementptr inbounds nuw %"struct.std::_Optional_payload_base.51", ptr %3, i32 0, i32 0
  call void @_ZNSt22_Optional_payload_baseISt4pairIbSt10shared_ptrIN5clang6interp7InitMapEEEE8_StorageIS6_Lb0EEC2Ev(ptr noundef nonnull align 8 dereferenceable(24) %4) #11
  %5 = getelementptr inbounds nuw %"struct.std::_Optional_payload_base.51", ptr %3, i32 0, i32 1
  store i8 0, ptr %5, align 8
  ret void
}

; Function Attrs: mustprogress nounwind uwtable
define linkonce_odr hidden void @_ZNSt17_Optional_payloadISt4pairIbSt10shared_ptrIN5clang6interp7InitMapEEELb1ELb0ELb0EEC2Ev(ptr noundef nonnull align 8 dereferenceable(25) %0) unnamed_addr #0 comdat align 2 {
  %2 = alloca ptr, align 8
  store ptr %0, ptr %2, align 8
  %3 = load ptr, ptr %2, align 8
  call void @_ZNSt22_Optional_payload_baseISt4pairIbSt10shared_ptrIN5clang6interp7InitMapEEEEC2Ev(ptr noundef nonnull align 8 dereferenceable(25) %3) #11
  ret void
}

; Function Attrs: mustprogress nounwind uwtable
define linkonce_odr hidden void @_ZNSt17_Optional_payloadISt4pairIbSt10shared_ptrIN5clang6interp7InitMapEEELb0ELb0ELb0EEC2Ev(ptr noundef nonnull align 8 dereferenceable(25) %0) unnamed_addr #0 comdat align 2 {
  %2 = alloca ptr, align 8
  store ptr %0, ptr %2, align 8
  %3 = load ptr, ptr %2, align 8
  call void @_ZNSt17_Optional_payloadISt4pairIbSt10shared_ptrIN5clang6interp7InitMapEEELb1ELb0ELb0EEC2Ev(ptr noundef nonnull align 8 dereferenceable(25) %3) #11
  ret void
}

; Function Attrs: mustprogress nounwind uwtable
define linkonce_odr hidden noundef i32 @_ZNK5clang6interp10Descriptor11getElemSizeEv(ptr noundef nonnull align 8 dereferenceable(80) %0) #0 comdat align 2 {
  %2 = alloca ptr, align 8
  store ptr %0, ptr %2, align 8
  %3 = load ptr, ptr %2, align 8
  %4 = getelementptr inbounds nuw %"struct.clang::interp::Descriptor", ptr %3, i32 0, i32 1
  %5 = load i32, ptr %4, align 8
  ret i32 %5
}

; Function Attrs: mustprogress nounwind uwtable
define linkonce_odr hidden noundef i32 @_ZNK5clang6interp10Descriptor7getSizeEv(ptr noundef nonnull align 8 dereferenceable(80) %0) #0 comdat align 2 {
  %2 = alloca ptr, align 8
  store ptr %0, ptr %2, align 8
  %3 = load ptr, ptr %2, align 8
  %4 = getelementptr inbounds nuw %"struct.clang::interp::Descriptor", ptr %3, i32 0, i32 2
  %5 = load i32, ptr %4, align 4
  ret i32 %5
}

; Function Attrs: mustprogress nounwind uwtable
define linkonce_odr hidden void @_ZNSt14_Optional_baseISt4pairIbSt10shared_ptrIN5clang6interp7InitMapEEELb0ELb0EEC2Ev(ptr noundef nonnull align 8 dereferenceable(32) %0) unnamed_addr #0 comdat align 2 {
  %2 = alloca ptr, align 8
  store ptr %0, ptr %2, align 8
  %3 = load ptr, ptr %2, align 8
  %4 = getelementptr inbounds nuw %"struct.std::_Optional_base.47", ptr %3, i32 0, i32 0
  call void @_ZNSt17_Optional_payloadISt4pairIbSt10shared_ptrIN5clang6interp7InitMapEEELb0ELb0ELb0EEC2Ev(ptr noundef nonnull align 8 dereferenceable(25) %4) #11
  ret void
}

; Function Attrs: mustprogress nounwind uwtable
define linkonce_odr hidden void @_ZN5clang6interp8IntegralILj32ELb0EEC2Ev(ptr noundef nonnull align 4 dereferenceable(4) %0) unnamed_addr #0 comdat align 2 {
  %2 = alloca ptr, align 8
  store ptr %0, ptr %2, align 8
  %3 = load ptr, ptr %2, align 8
  %4 = getelementptr inbounds nuw %"class.clang::interp::Integral.60", ptr %3, i32 0, i32 0
  store i32 0, ptr %4, align 4
  ret void
}

; Function Attrs: mustprogress nounwind uwtable
define linkonce_odr hidden noundef i32 @_ZNK5clang6interp10Descriptor11getNumElemsEv(ptr noundef nonnull align 8 dereferenceable(80) %0) #0 comdat align 2 {
  %2 = alloca ptr, align 8
  store ptr %0, ptr %2, align 8
  %3 = load ptr, ptr %2, align 8
  %4 = getelementptr inbounds nuw %"struct.clang::interp::Descriptor", ptr %3, i32 0, i32 2
  %5 = load i32, ptr %4, align 4
  %6 = icmp eq i32 %5, -1
  br i1 %6, label %7, label %8

7:                                                ; preds = %1
  br label %12

8:                                                ; preds = %1
  %9 = call noundef i32 @_ZNK5clang6interp10Descriptor7getSizeEv(ptr noundef nonnull align 8 dereferenceable(80) %3)
  %10 = call noundef i32 @_ZNK5clang6interp10Descriptor11getElemSizeEv(ptr noundef nonnull align 8 dereferenceable(80) %3)
  %11 = udiv i32 %9, %10
  br label %12

12:                                               ; preds = %8, %7
  %13 = phi i32 [ 0, %7 ], [ %11, %8 ]
  ret i32 %13
}

; Function Attrs: mustprogress nounwind uwtable
define linkonce_odr hidden void @_ZNSt8optionalISt4pairIbSt10shared_ptrIN5clang6interp7InitMapEEEEC2ESt9nullopt_t(ptr noundef nonnull align 8 dereferenceable(32) %0) unnamed_addr #0 comdat align 2 {
  %2 = alloca ptr, align 8
  store ptr %0, ptr %2, align 8
  %3 = load ptr, ptr %2, align 8
  call void @_ZNSt14_Optional_baseISt4pairIbSt10shared_ptrIN5clang6interp7InitMapEEELb0ELb0EEC2Ev(ptr noundef nonnull align 8 dereferenceable(32) %3) #11
  ret void
}

; Function Attrs: mustprogress nounwind uwtable
define internal void @_ZL11ctorArrayTyIN5clang6interp8IntegralILj32ELb0EEEEvPNS1_5BlockEPSt4bytebbbbPKNS1_10DescriptorE(ptr noundef %0, ptr noundef %1, i1 noundef zeroext %2, i1 noundef zeroext %3, i1 noundef zeroext %4, i1 noundef zeroext %5, ptr noundef %6) #0 {
  %8 = alloca ptr, align 8
  %9 = alloca ptr, align 8
  %10 = alloca i8, align 1
  %11 = alloca i8, align 1
  %12 = alloca i8, align 1
  %13 = alloca i8, align 1
  %14 = alloca ptr, align 8
  %15 = alloca i32, align 4
  %16 = alloca i32, align 4
  store ptr %0, ptr %8, align 8
  store ptr %1, ptr %9, align 8
  %17 = zext i1 %2 to i8
  store i8 %17, ptr %10, align 1
  %18 = zext i1 %3 to i8
  store i8 %18, ptr %11, align 1
  %19 = zext i1 %4 to i8
  store i8 %19, ptr %12, align 1
  %20 = zext i1 %5 to i8
  store i8 %20, ptr %13, align 1
  store ptr %6, ptr %14, align 8
  %21 = load ptr, ptr %9, align 8
  call void @_ZNSt8optionalISt4pairIbSt10shared_ptrIN5clang6interp7InitMapEEEEC2ESt9nullopt_t(ptr noundef nonnull align 8 dereferenceable(32) %21) #11
  %22 = load ptr, ptr %9, align 8
  %23 = getelementptr inbounds i8, ptr %22, i64 32
  store ptr %23, ptr %9, align 8
  store i32 0, ptr %15, align 4
  %24 = load ptr, ptr %14, align 8
  %25 = call noundef i32 @_ZNK5clang6interp10Descriptor11getNumElemsEv(ptr noundef nonnull align 8 dereferenceable(80) %24)
  store i32 %25, ptr %16, align 4
  br label %26

26:                                               ; preds = %35, %7
  %27 = load i32, ptr %15, align 4
  %28 = load i32, ptr %16, align 4
  %29 = icmp ult i32 %27, %28
  br i1 %29, label %30, label %38

30:                                               ; preds = %26
  %31 = load ptr, ptr %9, align 8
  %32 = load i32, ptr %15, align 4
  %33 = zext i32 %32 to i64
  %34 = getelementptr inbounds %"class.clang::interp::Integral.60", ptr %31, i64 %33
  call void @_ZN5clang6interp8IntegralILj32ELb0EEC2Ev(ptr noundef nonnull align 4 dereferenceable(4) %34)
  br label %35

35:                                               ; preds = %30
  %36 = load i32, ptr %15, align 4
  %37 = add i32 %36, 1
  store i32 %37, ptr %15, align 4
  br label %26, !llvm.loop !13

38:                                               ; preds = %26
  ret void
}